(lp0
F30.0
aF28.0
aF26.0
aF24.0
aF22.0
aF20.0
aF18.0
aF16.0
aF14.0
aF12.0
aF10.0
aF8.0
aF6.0
aF4.0
aF2.0
aF0.0
aF-2.0
aF-4.0
aF-6.0
aF-8.0
aF-10.0
aF-12.0
aF-14.0
aF-16.0
aF-18.0
aF-20.0
aF-22.0
aF-24.0
aF-26.0
aF-28.0
aF-30.0
aF-32.0
aF-34.0
aF-36.0
aF-38.0
aF-40.0
aF-42.0
aF-44.0
aF-46.0
aF-48.0
aF-50.0
aF-52.0
aF-54.0
aF-56.0
aF-58.0
aF-60.0
aF-62.0
aF-64.0
aF-66.0
aF-68.0
aF-70.0
aF-72.0
aF-74.0
aF-76.0
aF-78.0
aF-80.0
aF-82.0
aF-84.0
aF-86.0
aF-88.0
aF-90.0
aF-92.0
aF-94.0
aF-96.0
aF-98.0
aF-100.0
aF-102.0
aF-104.0
aF-106.0
aF-108.0
aF-110.0
aF-112.0
aF-114.0
aF-116.0
aF-118.0
aF-120.0
aF-122.0
aF-124.0
aF-126.0
aF-128.0
aF-130.0
aF-132.0
aF-134.0
aF-136.0
aF-138.0
aF-140.0
aF-142.0
aF-144.0
aF-146.0
aF-148.0
aF-150.0
aF-152.0
aF-154.0
aF-156.0
aF-158.0
aF-160.0
aF-162.0
aF-164.0
aF-166.0
aF-168.0
aF-170.0
aF-172.0
aF-174.0
aF-176.0
aF-178.0
aF-180.0
aF-182.0
aF-184.0
aF-186.0
aF-188.0
aF-190.0
aF-192.0
aF-194.0
aF-196.0
aF-198.0
aF-200.0
aF-202.0
aF-204.0
aF-206.0
aF-208.0
aF-210.0
aF-212.0
aF-214.0
aF-216.0
aF-218.0
aF-220.0
aF-222.0
aF-224.0
aF-226.0
aF-228.0
aF-230.0
aF-232.0
aF-234.0
aF-236.0
aF-238.0
aF-240.0
aF-242.0
aF-244.0
aF-246.0
aF-248.0
aF-250.0
aF-252.0
aF-254.0
aF-256.0
aF-258.0
aF-260.0
aF-262.0
aF-264.0
aF-266.0
aF-268.0
aF-270.0
aF-272.0
aF-274.0
aF-276.0
aF-278.0
aF-280.0
aF-282.0
aF-284.0
aF-286.0
aF-288.0
aF-290.0
aF-292.0
aF-294.0
aF-296.0
aF-298.0
aF-300.0
aF-302.0
aF-304.0
aF-306.0
aF-308.0
aF-310.0
aF-312.0
aF-314.0
aF-316.0
aF-318.0
aF-320.0
aF-322.0
aF-324.0
aF-326.0
aF-328.0
aF-330.0
aF-332.0
aF-334.0
aF-336.0
aF-338.0
aF-340.0
aF-342.0
aF-344.0
aF-346.0
aF-348.0
aF-350.0
aF-352.0
aF-354.0
aF-356.0
aF-358.0
aF-360.0
aF-362.0
aF-364.0
aF-366.0
aF-368.0
aF-370.0
aF-372.0
aF-374.0
aF-376.0
aF-378.0
aF-380.0
aF-382.0
aF-384.0
aF-386.0
aF-388.0
aF-390.0
aF-392.0
aF-394.0
aF-396.0
aF-398.0
aF-400.0
aF-402.0
aF-404.0
aF-406.0
aF-408.0
aF-410.0
aF-412.0
aF-414.0
aF-416.0
aF-418.0
aF-420.0
aF-422.0
aF-424.0
aF-426.0
aF-428.0
aF-430.0
aF-432.0
aF-434.0
aF-436.0
aF-438.0
aF-440.0
aF-442.0
aF-444.0
aF-446.0
aF-448.0
aF-450.0
aF-452.0
aF-454.0
aF-456.0
aF-458.0
aF-460.0
aF-462.0
aF-464.0
aF-466.0
aF-468.0
aF-470.0
aF-472.0
aF-474.0
aF-476.0
aF-478.0
aF-480.0
aF-482.0
aF-484.0
aF-486.0
aF-488.0
aF-490.0
aF-492.0
aF-494.0
aF-496.0
aF-498.0
aF-500.0
aF-502.0
aF-504.0
aF-506.0
aF-508.0
aF-510.0
aF-512.0
aF-514.0
aF-516.0
aF-518.0
aF-520.0
aF-522.0
aF-524.0
aF-526.0
aF-528.0
aF-530.0
aF-532.0
aF-534.0
aF-536.0
aF-538.0
aF-540.0
aF-542.0
aF-544.0
aF-546.0
aF-548.0
aF-550.0
aF-552.0
aF-554.0
aF-556.0
aF-558.0
aF-560.0
aF-562.0
aF-564.0
aF-566.0
aF-568.0
aF-570.0
aF-572.0
aF-574.0
aF-576.0
aF-578.0
aF-580.0
aF-582.0
aF-584.0
aF-586.0
aF-588.0
aF-590.0
aF-592.0
aF-594.0
aF-596.0
aF-598.0
aF-600.0
aF-602.0
aF-604.0
aF-606.0
aF-608.0
aF-610.0
aF-612.0
aF-614.0
aF-616.0
aF-618.0
aF-620.0
aF-622.0
aF-624.0
aF-626.0
aF-628.0
aF-630.0
aF-632.0
aF-634.0
aF-636.0
aF-638.0
aF-640.0
aF-642.0
aF-644.0
aF-646.0
aF-648.0
aF-650.0
aF-652.0
aF-654.0
aF-656.0
aF-658.0
aF-660.0
aF-662.0
aF-664.0
aF-666.0
aF-668.0
aF-670.0
aF-672.0
aF-674.0
aF-676.0
aF-678.0
aF-680.0
aF-682.0
aF-684.0
aF-686.0
aF-688.0
aF-690.0
aF-692.0
aF-694.0
aF-696.0
aF-698.0
aF-700.0
aF-702.0
aF-704.0
aF-706.0
aF-708.0
aF-710.0
aF-712.0
aF-714.0
aF-716.0
aF-718.0
aF-720.0
aF-722.0
aF-724.0
aF-726.0
aF-728.0
aF-730.0
aF-732.0
aF-734.0
aF-736.0
aF-738.0
aF-740.0
aF-742.0
aF-744.0
aF-746.0
aF-748.0
aF-750.0
aF-752.0
aF-754.0
aF-756.0
aF-758.0
aF-760.0
aF-762.0
aF-764.0
aF-766.0
aF-768.0
aF-770.0
aF-772.0
aF-774.0
aF-776.0
aF-778.0
aF-780.0
aF-782.0
aF-784.0
aF-786.0
aF-788.0
aF-790.0
aF-792.0
aF-794.0
aF-796.0
aF-798.0
aF-800.0
aF-802.0
aF-804.0
aF-806.0
aF-808.0
aF-810.0
aF-812.0
aF-814.0
aF-816.0
aF-818.0
aF-820.0
aF-822.0
aF-824.0
aF-826.0
aF-828.0
aF-830.0
aF-832.0
aF-834.0
aF-836.0
aF-838.0
aF-840.0
aF-842.0
aF-844.0
aF-846.0
aF-848.0
aF-850.0
aF-852.0
aF-854.0
aF-856.0
aF-858.0
aF-860.0
aF-862.0
aF-864.0
aF-866.0
aF-868.0
aF-870.0
aF-872.0
aF-874.0
aF-876.0
aF-878.0
aF-880.0
aF-882.0
aF-884.0
aF-886.0
aF-888.0
aF-890.0
aF-892.0
aF-894.0
aF-896.0
aF-898.0
aF-900.0
aF-902.0
aF-904.0
aF-906.0
aF-908.0
aF-910.0
aF-912.0
aF-914.0
aF-916.0
aF-918.0
aF-920.0
aF-922.0
aF-924.0
aF-926.0
aF-928.0
aF-930.0
aF-932.0
aF-934.0
aF-936.0
aF-938.0
aF-940.0
aF-942.0
aF-944.0
aF-946.0
aF-948.0
aF-950.0
aF-952.0
aF-954.0
aF-956.0
aF-958.0
aF-960.0
aF-962.0
aF-964.0
aF-966.0
aF-968.0
aF-970.0
aF-972.0
aF-974.0
aF-976.0
aF-978.0
aF-980.0
aF-982.0
aF-984.0
aF-986.0
aF-988.0
aF-990.0
aF-992.0
aF-994.0
aF-996.0
aF-998.0
aF-1000.0
aF-1002.0
aF-1004.0
aF-1006.0
aF-1008.0
aF-1010.0
aF-1012.0
aF-1014.0
aF-1016.0
aF-1018.0
aF-1020.0
aF-1022.0
aF-1024.0
aF-1026.0
aF-1028.0
aF-1030.0
aF-1032.0
aF-1034.0
aF-1036.0
aF-1038.0
aF-1040.0
aF-1042.0
aF-1044.0
aF-1046.0
aF-1048.0
aF-1050.0
aF-1052.0
aF-1054.0
aF-1056.0
aF-1058.0
aF-1060.0
aF-1062.0
aF-1064.0
aF-1066.0
aF-1068.0
aF-1070.0
aF-1072.0
aF-1074.0
aF-1076.0
aF-1078.0
aF-1080.0
aF-1082.0
aF-1084.0
aF-1086.0
aF-1088.0
aF-1090.0
aF-1092.0
aF-1094.0
aF-1096.0
aF-1098.0
aF-1100.0
aF-1102.0
aF-1104.0
aF-1106.0
aF-1108.0
aF-1110.0
aF-1112.0
aF-1114.0
aF-1116.0
aF-1118.0
aF-1120.0
aF-1122.0
aF-1124.0
aF-1126.0
aF-1128.0
aF-1130.0
aF-1132.0
aF-1134.0
aF-1136.0
aF-1138.0
aF-1140.0
aF-1142.0
aF-1144.0
aF-1146.0
aF-1148.0
aF-1150.0
aF-1152.0
aF-1154.0
aF-1156.0
aF-1158.0
aF-1160.0
aF-1162.0
aF-1164.0
aF-1166.0
aF-1168.0
aF-1170.0
aF-1172.0
aF-1174.0
aF-1176.0
aF-1178.0
aF-1180.0
aF-1182.0
aF-1184.0
aF-1186.0
aF-1188.0
aF-1190.0
aF-1192.0
aF-1194.0
aF-1196.0
aF-1198.0
aF-1200.0
aF-1202.0
aF-1204.0
aF-1206.0
aF-1208.0
aF-1210.0
aF-1212.0
aF-1214.0
aF-1216.0
aF-1218.0
aF-1220.0
aF-1222.0
aF-1224.0
aF-1226.0
aF-1228.0
aF-1230.0
aF-1232.0
aF-1234.0
aF-1236.0
aF-1238.0
aF-1240.0
aF-1242.0
aF-1244.0
aF-1246.0
aF-1248.0
aF-1250.0
aF-1252.0
aF-1254.0
aF-1256.0
aF-1258.0
aF-1260.0
aF-1262.0
aF-1264.0
aF-1266.0
aF-1268.0
aF-1270.0
aF-1272.0
aF-1274.0
aF-1276.0
aF-1278.0
aF-1280.0
aF-1282.0
aF-1284.0
aF-1286.0
aF-1288.0
aF-1290.0
aF-1292.0
aF-1294.0
aF-1296.0
aF-1298.0
aF-1300.0
aF-1302.0
aF-1304.0
aF-1306.0
aF-1308.0
aF-1310.0
aF-1312.0
aF-1314.0
aF-1316.0
aF-1318.0
aF-1320.0
aF-1322.0
aF-1324.0
aF-1326.0
aF-1328.0
aF-1330.0
aF-1332.0
aF-1334.0
aF-1336.0
aF-1338.0
aF-1340.0
aF-1342.0
aF-1344.0
aF-1346.0
aF-1348.0
aF-1350.0
aF-1352.0
aF-1354.0
aF-1356.0
aF-1358.0
aF-1360.0
aF-1362.0
aF-1364.0
aF-1366.0
aF-1368.0
aF-1370.0
aF-1372.0
aF-1374.0
aF-1376.0
aF-1378.0
aF-1380.0
aF-1382.0
aF-1384.0
aF-1386.0
aF-1388.0
aF-1390.0
aF-1392.0
aF-1394.0
aF-1396.0
aF-1398.0
aF-1400.0
aF-1402.0
aF-1404.0
aF-1406.0
aF-1408.0
aF-1410.0
aF-1412.0
aF-1414.0
aF-1416.0
aF-1418.0
aF-1420.0
aF-1422.0
aF-1424.0
aF-1426.0
aF-1428.0
aF-1430.0
aF-1432.0
aF-1434.0
aF-1436.0
aF-1438.0
aF-1440.0
aF-1442.0
aF-1444.0
aF-1446.0
aF-1448.0
aF-1450.0
aF-1452.0
aF-1454.0
aF-1456.0
aF-1458.0
aF-1460.0
aF-1462.0
aF-1464.0
aF-1466.0
aF-1468.0
aF-1470.0
aF-1472.0
aF-1474.0
aF-1476.0
aF-1478.0
aF-1480.0
aF-1482.0
aF-1484.0
aF-1486.0
aF-1488.0
aF-1490.0
aF-1492.0
aF-1494.0
aF-1496.0
aF-1498.0
aF-1500.0
aF-1502.0
aF-1504.0
aF-1506.0
aF-1508.0
aF-1510.0
aF-1512.0
aF-1514.0
aF-1516.0
aF-1518.0
aF-1520.0
aF-1522.0
aF-1524.0
aF-1526.0
aF-1528.0
aF-1530.0
aF-1532.0
aF-1534.0
aF-1536.0
aF-1538.0
aF-1540.0
aF-1542.0
aF-1544.0
aF-1546.0
aF-1548.0
aF-1550.0
aF-1552.0
aF-1554.0
aF-1556.0
aF-1558.0
aF-1560.0
aF-1562.0
aF-1564.0
aF-1566.0
aF-1568.0
aF-1570.0
aF-1572.0
aF-1574.0
aF-1576.0
aF-1578.0
aF-1580.0
aF-1582.0
aF-1584.0
aF-1586.0
aF-1588.0
aF-1590.0
aF-1592.0
aF-1594.0
aF-1596.0
aF-1598.0
aF-1600.0
aF-1602.0
aF-1604.0
aF-1606.0
aF-1608.0
aF-1610.0
aF-1612.0
aF-1614.0
aF-1616.0
aF-1618.0
aF-1620.0
aF-1622.0
aF-1624.0
aF-1626.0
aF-1628.0
aF-1630.0
aF-1632.0
aF-1634.0
aF-1636.0
aF-1638.0
aF-1640.0
aF-1642.0
aF-1644.0
aF-1646.0
aF-1648.0
aF-1650.0
aF-1652.0
aF-1654.0
aF-1656.0
aF-1658.0
aF-1660.0
aF-1662.0
aF-1664.0
aF-1666.0
aF-1668.0
aF-1670.0
aF-1672.0
aF-1674.0
aF-1676.0
aF-1678.0
aF-1680.0
aF-1682.0
aF-1684.0
aF-1686.0
aF-1688.0
aF-1690.0
aF-1692.0
aF-1694.0
aF-1696.0
aF-1698.0
aF-1700.0
aF-1702.0
aF-1704.0
aF-1706.0
aF-1708.0
aF-1710.0
aF-1712.0
aF-1714.0
aF-1716.0
aF-1718.0
aF-1720.0
aF-1722.0
aF-1724.0
aF-1726.0
aF-1728.0
aF-1730.0
aF-1732.0
aF-1734.0
aF-1736.0
aF-1738.0
aF-1740.0
aF-1742.0
aF-1744.0
aF-1746.0
aF-1748.0
aF-1750.0
aF-1752.0
aF-1754.0
aF-1756.0
aF-1758.0
aF-1760.0
aF-1762.0
aF-1764.0
aF-1766.0
aF-1768.0
a.