(lp0
(I-100
I946
tp1
a(I-99
I667
tp2
a(I-98
I113
tp3
a(I-97
I703
tp4
a(I-96
I740
tp5
a(I-95
I653
tp6
a(I-94
I323
tp7
a(I-93
I375
tp8
a(I-92
I57
tp9
a(I-91
I614
tp10
a(I-90
I24
tp11
a(I-89
I221
tp12
a(I-88
I119
tp13
a(I-87
I513
tp14
a(I-86
I114
tp15
a(I-85
I541
tp16
a(I-84
I577
tp17
a(I-83
I975
tp18
a(I-82
I203
tp19
a(I-81
I374
tp20
a(I-80
I159
tp21
a(I-79
I86
tp22
a(I-78
I448
tp23
a(I-77
I776
tp24
a(I-76
I480
tp25
a(I-75
I72
tp26
a(I-74
I430
tp27
a(I-73
I637
tp28
a(I-72
I195
tp29
a(I-71
I758
tp30
a(I-70
I85
tp31
a(I-69
I316
tp32
a(I-68
I204
tp33
a(I-67
I662
tp34
a(I-66
I649
tp35
a(I-65
I69
tp36
a(I-64
I87
tp37
a(I-63
I197
tp38
a(I-62
I796
tp39
a(I-61
I267
tp40
a(I-60
I446
tp41
a(I-59
I658
tp42
a(I-58
I435
tp43
a(I-57
I250
tp44
a(I-56
I381
tp45
a(I-55
I586
tp46
a(I-54
I70
tp47
a(I-53
I211
tp48
a(I-52
I738
tp49
a(I-51
I7
tp50
a(I-50
I625
tp51
a(I-49
I627
tp52
a(I-48
I157
tp53
a(I-47
I956
tp54
a(I-46
I183
tp55
a(I-45
I120
tp56
a(I-44
I880
tp57
a(I-43
I182
tp58
a(I-42
I734
tp59
a(I-41
I847
tp60
a(I-40
I813
tp61
a(I-39
I418
tp62
a(I-38
I396
tp63
a(I-37
I253
tp64
a(I-36
I35
tp65
a(I-35
I731
tp66
a(I-34
I397
tp67
a(I-33
I258
tp68
a(I-32
I31
tp69
a(I-31
I84
tp70
a(I-30
I443
tp71
a(I-29
I695
tp72
a(I-28
I272
tp73
a(I-27
I359
tp74
a(I-26
I815
tp75
a(I-25
I721
tp76
a(I-24
I101
tp77
a(I-23
I59
tp78
a(I-22
I180
tp79
a(I-21
I710
tp80
a(I-20
I834
tp81
a(I-19
I650
tp82
a(I-18
I15
tp83
a(I-17
I65
tp84
a(I-16
I722
tp85
a(I-15
I715
tp86
a(I-14
I131
tp87
a(I-13
I445
tp88
a(I-12
I340
tp89
a(I-11
I519
tp90
a(I-10
I348
tp91
a(I-9
I607
tp92
a(I-8
I297
tp93
a(I-7
I298
tp94
a(I-6
I962
tp95
a(I-5
I245
tp96
a(I-4
I927
tp97
a(I-3
I395
tp98
a(I-2
I44
tp99
a(I-1
I992
tp100
a(I0
I641
tp101
a(I1
I631
tp102
a(I2
I574
tp103
a(I3
I997
tp104
a(I4
I73
tp105
a(I5
I444
tp106
a(I6
I268
tp107
a(I7
I711
tp108
a(I8
I488
tp109
a(I9
I709
tp110
a(I10
I40
tp111
a(I11
I544
tp112
a(I12
I338
tp113
a(I13
I565
tp114
a(I14
I463
tp115
a(I15
I100
tp116
a(I16
I199
tp117
a(I17
I393
tp118
a(I18
I578
tp119
a(I19
I52
tp120
a(I20
I140
tp121
a(I21
I670
tp122
a(I22
I783
tp123
a(I23
I561
tp124
a(I24
I674
tp125
a(I25
I534
tp126
a(I26
I969
tp127
a(I27
I386
tp128
a(I28
I512
tp129
a(I29
I688
tp130
a(I30
I842
tp131
a(I31
I725
tp132
a(I32
I804
tp133
a(I33
I402
tp134
a(I34
I863
tp135
a(I35
I945
tp136
a(I36
I60
tp137
a(I37
I98
tp138
a(I38
I950
tp139
a(I39
I832
tp140
a(I40
I679
tp141
a(I41
I522
tp142
a(I42
I916
tp143
a(I43
I657
tp144
a(I44
I824
tp145
a(I45
I134
tp146
a(I46
I282
tp147
a(I47
I830
tp148
a(I48
I67
tp149
a(I49
I883
tp150
a(I50
I551
tp151
a(I51
I856
tp152
a(I52
I626
tp153
a(I53
I520
tp154
a(I54
I367
tp155
a(I55
I756
tp156
a(I56
I816
tp157
a(I57
I273
tp158
a(I58
I133
tp159
a(I59
I271
tp160
a(I60
I998
tp161
a(I61
I280
tp162
a(I62
I644
tp163
a(I63
I798
tp164
a(I64
I751
tp165
a(I65
I259
tp166
a(I66
I325
tp167
a(I67
I648
tp168
a(I68
I109
tp169
a(I69
I629
tp170
a(I70
I588
tp171
a(I71
I238
tp172
a(I72
I987
tp173
a(I73
I941
tp174
a(I74
I954
tp175
a(I75
I597
tp176
a(I76
I339
tp177
a(I77
I875
tp178
a(I78
I314
tp179
a(I79
I696
tp180
a(I80
I633
tp181
a(I81
I347
tp182
a(I82
I358
tp183
a(I83
I324
tp184
a(I84
I13
tp185
a(I85
I600
tp186
a(I86
I896
tp187
a(I87
I752
tp188
a(I88
I269
tp189
a(I89
I571
tp190
a(I90
I438
tp191
a(I91
I239
tp192
a(I92
I707
tp193
a(I93
I980
tp194
a(I94
I291
tp195
a(I95
I521
tp196
a(I96
I414
tp197
a(I97
I215
tp198
a(I98
I988
tp199
a(I99
I621
tp200
a(I100
I483
tp201
a(I101
I230
tp202
a(I102
I873
tp203
a(I103
I632
tp204
a(I104
I431
tp205
a(I105
I733
tp206
a(I106
I154
tp207
a(I107
I424
tp208
a(I108
I232
tp209
a(I109
I866
tp210
a(I110
I105
tp211
a(I111
I198
tp212
a(I112
I949
tp213
a(I113
I102
tp214
a(I114
I503
tp215
a(I115
I702
tp216
a(I116
I681
tp217
a(I117
I685
tp218
a(I118
I138
tp219
a(I119
I502
tp220
a(I120
I691
tp221
a(I121
I493
tp222
a(I122
I926
tp223
a(I123
I515
tp224
a(I124
I580
tp225
a(I125
I420
tp226
a(I126
I568
tp227
a(I127
I363
tp228
a(I128
I990
tp229
a(I129
I222
tp230
a(I130
I213
tp231
a(I131
I723
tp232
a(I132
I153
tp233
a(I133
I719
tp234
a(I134
I63
tp235
a(I135
I797
tp236
a(I136
I871
tp237
a(I137
I278
tp238
a(I138
I290
tp239
a(I139
I156
tp240
a(I140
I387
tp241
a(I141
I5
tp242
a(I142
I601
tp243
a(I143
I937
tp244
a(I144
I19
tp245
a(I145
I497
tp246
a(I146
I594
tp247
a(I147
I557
tp248
a(I148
I108
tp249
a(I149
I708
tp250
a(I150
I684
tp251
a(I151
I289
tp252
a(I152
I394
tp253
a(I153
I694
tp254
a(I154
I201
tp255
a(I155
I121
tp256
a(I156
I129
tp257
a(I157
I160
tp258
a(I158
I481
tp259
a(I159
I994
tp260
a(I160
I843
tp261
a(I161
I964
tp262
a(I162
I885
tp263
a(I163
I237
tp264
a(I164
I410
tp265
a(I165
I58
tp266
a(I166
I807
tp267
a(I167
I764
tp268
a(I168
I219
tp269
a(I169
I257
tp270
a(I170
I360
tp271
a(I171
I228
tp272
a(I172
I823
tp273
a(I173
I307
tp274
a(I174
I41
tp275
a(I175
I459
tp276
a(I176
I591
tp277
a(I177
I152
tp278
a(I178
I765
tp279
a(I179
I928
tp280
a(I180
I889
tp281
a(I181
I687
tp282
a(I182
I128
tp283
a(I183
I342
tp284
a(I184
I26
tp285
a(I185
I787
tp286
a(I186
I640
tp287
a(I187
I490
tp288
a(I188
I130
tp289
a(I189
I4
tp290
a(I190
I615
tp291
a(I191
I163
tp292
a(I192
I251
tp293
a(I193
I652
tp294
a(I194
I979
tp295
a(I195
I78
tp296
a(I196
I96
tp297
a(I197
I778
tp298
a(I198
I981
tp299
a(I199
I275
tp300
a(I200
I558
tp301
a(I201
I458
tp302
a(I202
I869
tp303
a(I203
I233
tp304
a(I204
I692
tp305
a(I205
I536
tp306
a(I206
I169
tp307
a(I207
I226
tp308
a(I208
I147
tp309
a(I209
I82
tp310
a(I210
I500
tp311
a(I211
I212
tp312
a(I212
I971
tp313
a(I213
I628
tp314
a(I214
I836
tp315
a(I215
I194
tp316
a(I216
I276
tp317
a(I217
I970
tp318
a(I218
I247
tp319
a(I219
I249
tp320
a(I220
I583
tp321
a(I221
I475
tp322
a(I222
I518
tp323
a(I223
I505
tp324
a(I224
I302
tp325
a(I225
I786
tp326
a(I226
I61
tp327
a(I227
I434
tp328
a(I228
I21
tp329
a(I229
I599
tp330
a(I230
I330
tp331
a(I231
I705
tp332
a(I232
I456
tp333
a(I233
I334
tp334
a(I234
I996
tp335
a(I235
I68
tp336
a(I236
I74
tp337
a(I237
I403
tp338
a(I238
I767
tp339
a(I239
I64
tp340
a(I240
I227
tp341
a(I241
I942
tp342
a(I242
I822
tp343
a(I243
I416
tp344
a(I244
I34
tp345
a(I245
I560
tp346
a(I246
I661
tp347
a(I247
I938
tp348
a(I248
I37
tp349
a(I249
I292
tp350
a(I250
I592
tp351
a(I251
I682
tp352
a(I252
I835
tp353
a(I253
I165
tp354
a(I254
I754
tp355
a(I255
I193
tp356
a(I256
I978
tp357
a(I257
I422
tp358
a(I258
I263
tp359
a(I259
I901
tp360
a(I260
I220
tp361
a(I261
I492
tp362
a(I262
I671
tp363
a(I263
I818
tp364
a(I264
I526
tp365
a(I265
I77
tp366
a(I266
I39
tp367
a(I267
I288
tp368
a(I268
I313
tp369
a(I269
I94
tp370
a(I270
I545
tp371
a(I271
I630
tp372
a(I272
I516
tp373
a(I273
I540
tp374
a(I274
I543
tp375
a(I275
I897
tp376
a(I276
I852
tp377
a(I277
I726
tp378
a(I278
I311
tp379
a(I279
I145
tp380
a(I280
I612
tp381
a(I281
I126
tp382
a(I282
I673
tp383
a(I283
I137
tp384
a(I284
I454
tp385
a(I285
I690
tp386
a(I286
I538
tp387
a(I287
I477
tp388
a(I288
I753
tp389
a(I289
I452
tp390
a(I290
I409
tp391
a(I291
I508
tp392
a(I292
I806
tp393
a(I293
I6
tp394
a(I294
I552
tp395
a(I295
I811
tp396
a(I296
I315
tp397
a(I297
I246
tp398
a(I298
I678
tp399
a(I299
I95
tp400
a(I300
I680
tp401
a(I301
I8
tp402
a(I302
I689
tp403
a(I303
I888
tp404
a(I304
I573
tp405
a(I305
I436
tp406
a(I306
I611
tp407
a(I307
I1
tp408
a(I308
I344
tp409
a(I309
I792
tp410
a(I310
I803
tp411
a(I311
I961
tp412
a(I312
I382
tp413
a(I313
I320
tp414
a(I314
I507
tp415
a(I315
I427
tp416
a(I316
I868
tp417
a(I317
I893
tp418
a(I318
I294
tp419
a(I319
I341
tp420
a(I320
I935
tp421
a(I321
I668
tp422
a(I322
I49
tp423
a(I323
I79
tp424
a(I324
I955
tp425
a(I325
I909
tp426
a(I326
I150
tp427
a(I327
I322
tp428
a(I328
I23
tp429
a(I329
I186
tp430
a(I330
I404
tp431
a(I331
I604
tp432
a(I332
I881
tp433
a(I333
I523
tp434
a(I334
I487
tp435
a(I335
I449
tp436
a(I336
I118
tp437
a(I337
I974
tp438
a(I338
I892
tp439
a(I339
I745
tp440
a(I340
I471
tp441
a(I341
I385
tp442
a(I342
I473
tp443
a(I343
I700
tp444
a(I344
I825
tp445
a(I345
I862
tp446
a(I346
I957
tp447
a(I347
I854
tp448
a(I348
I904
tp449
a(I349
I328
tp450
a(I350
I763
tp451
a(I351
I782
tp452
a(I352
I450
tp453
a(I353
I104
tp454
a(I354
I966
tp455
a(I355
I33
tp456
a(I356
I225
tp457
a(I357
I922
tp458
a(I358
I716
tp459
a(I359
I200
tp460
a(I360
I533
tp461
a(I361
I697
tp462
a(I362
I616
tp463
a(I363
I542
tp464
a(I364
I455
tp465
a(I365
I99
tp466
a(I366
I111
tp467
a(I367
I977
tp468
a(I368
I770
tp469
a(I369
I766
tp470
a(I370
I762
tp471
a(I371
I103
tp472
a(I372
I906
tp473
a(I373
I235
tp474
a(I374
I790
tp475
a(I375
I423
tp476
a(I376
I107
tp477
a(I377
I575
tp478
a(I378
I115
tp479
a(I379
I162
tp480
a(I380
I622
tp481
a(I381
I642
tp482
a(I382
I164
tp483
a(I383
I132
tp484
a(I384
I265
tp485
a(I385
I608
tp486
a(I386
I384
tp487
a(I387
I895
tp488
a(I388
I617
tp489
a(I389
I501
tp490
a(I390
I886
tp491
a(I391
I176
tp492
a(I392
I831
tp493
a(I393
I929
tp494
a(I394
I308
tp495
a(I395
I139
tp496
a(I396
I440
tp497
a(I397
I110
tp498
a(I398
I29
tp499
a(I399
I732
tp500
a(I400
I191
tp501
a(I401
I563
tp502
a(I402
I285
tp503
a(I403
I264
tp504
a(I404
I899
tp505
a(I405
I149
tp506
a(I406
I155
tp507
a(I407
I506
tp508
a(I408
I161
tp509
a(I409
I894
tp510
a(I410
I867
tp511
a(I411
I531
tp512
a(I412
I511
tp513
a(I413
I181
tp514
a(I414
I624
tp515
a(I415
I122
tp516
a(I416
I216
tp517
a(I417
I283
tp518
a(I418
I202
tp519
a(I419
I11
tp520
a(I420
I853
tp521
a(I421
I874
tp522
a(I422
I750
tp523
a(I423
I3
tp524
a(I424
I468
tp525
a(I425
I839
tp526
a(I426
I167
tp527
a(I427
I905
tp528
a(I428
I704
tp529
a(I429
I210
tp530
a(I430
I346
tp531
a(I431
I56
tp532
a(I432
I47
tp533
a(I433
I117
tp534
a(I434
I136
tp535
a(I435
I399
tp536
a(I436
I934
tp537
a(I437
I593
tp538
a(I438
I91
tp539
a(I439
I769
tp540
a(I440
I48
tp541
a(I441
I802
tp542
a(I442
I185
tp543
a(I443
I590
tp544
a(I444
I214
tp545
a(I445
I361
tp546
a(I446
I953
tp547
a(I447
I609
tp548
a(I448
I18
tp549
a(I449
I923
tp550
a(I450
I187
tp551
a(I451
I81
tp552
a(I452
I32
tp553
a(I453
I189
tp554
a(I454
I333
tp555
a(I455
I920
tp556
a(I456
I304
tp557
a(I457
I924
tp558
a(I458
I461
tp559
a(I459
I810
tp560
a(I460
I106
tp561
a(I461
I224
tp562
a(I462
I472
tp563
a(I463
I951
tp564
a(I464
I355
tp565
a(I465
I944
tp566
a(I466
I655
tp567
a(I467
I196
tp568
a(I468
I277
tp569
a(I469
I749
tp570
a(I470
I509
tp571
a(I471
I354
tp572
a(I472
I89
tp573
a(I473
I441
tp574
a(I474
I960
tp575
a(I475
I556
tp576
a(I476
I335
tp577
a(I477
I549
tp578
a(I478
I376
tp579
a(I479
I634
tp580
a(I480
I390
tp581
a(I481
I672
tp582
a(I482
I925
tp583
a(I483
I647
tp584
a(I484
I713
tp585
a(I485
I148
tp586
a(I486
I470
tp587
a(I487
I639
tp588
a(I488
I848
tp589
a(I489
I231
tp590
a(I490
I967
tp591
a(I491
I244
tp592
a(I492
I495
tp593
a(I493
I93
tp594
a(I494
I248
tp595
a(I495
I405
tp596
a(I496
I739
tp597
a(I497
I584
tp598
a(I498
I821
tp599
a(I499
I651
tp600
a(I500
I918
tp601
a(I501
I525
tp602
a(I502
I891
tp603
a(I503
I524
tp604
a(I504
I90
tp605
a(I505
I279
tp606
a(I506
I366
tp607
a(I507
I301
tp608
a(I508
I240
tp609
a(I509
I952
tp610
a(I510
I539
tp611
a(I511
I907
tp612
a(I512
I775
tp613
a(I513
I329
tp614
a(I514
I127
tp615
a(I515
I205
tp616
a(I516
I784
tp617
a(I517
I701
tp618
a(I518
I550
tp619
a(I519
I535
tp620
a(I520
I727
tp621
a(I521
I643
tp622
a(I522
I859
tp623
a(I523
I166
tp624
a(I524
I861
tp625
a(I525
I88
tp626
a(I526
I728
tp627
a(I527
I38
tp628
a(I528
I362
tp629
a(I529
I365
tp630
a(I530
I116
tp631
a(I531
I356
tp632
a(I532
I741
tp633
a(I533
I270
tp634
a(I534
I991
tp635
a(I535
I865
tp636
a(I536
I900
tp637
a(I537
I849
tp638
a(I538
I426
tp639
a(I539
I336
tp640
a(I540
I498
tp641
a(I541
I908
tp642
a(I542
I517
tp643
a(I543
I432
tp644
a(I544
I968
tp645
a(I545
I419
tp646
a(I546
I596
tp647
a(I547
I771
tp648
a(I548
I530
tp649
a(I549
I887
tp650
a(I550
I613
tp651
a(I551
I71
tp652
a(I552
I528
tp653
a(I553
I510
tp654
a(I554
I808
tp655
a(I555
I917
tp656
a(I556
I66
tp657
a(I557
I310
tp658
a(I558
I984
tp659
a(I559
I345
tp660
a(I560
I669
tp661
a(I561
I266
tp662
a(I562
I884
tp663
a(I563
I415
tp664
a(I564
I858
tp665
a(I565
I453
tp666
a(I566
I851
tp667
a(I567
I582
tp668
a(I568
I572
tp669
a(I569
I985
tp670
a(I570
I840
tp671
a(I571
I598
tp672
a(I572
I948
tp673
a(I573
I350
tp674
a(I574
I261
tp675
a(I575
I429
tp676
a(I576
I331
tp677
a(I577
I794
tp678
a(I578
I737
tp679
a(I579
I646
tp680
a(I580
I890
tp681
a(I581
I151
tp682
a(I582
I656
tp683
a(I583
I619
tp684
a(I584
I963
tp685
a(I585
I413
tp686
a(I586
I774
tp687
a(I587
I606
tp688
a(I588
I146
tp689
a(I589
I92
tp690
a(I590
I83
tp691
a(I591
I864
tp692
a(I592
I408
tp693
a(I593
I742
tp694
a(I594
I135
tp695
a(I595
I779
tp696
a(I596
I947
tp697
a(I597
I846
tp698
a(I598
I209
tp699
a(I599
I845
tp700
a(I600
I337
tp701
a(I601
I914
tp702
a(I602
I14
tp703
a(I603
I940
tp704
a(I604
I773
tp705
a(I605
I144
tp706
a(I606
I547
tp707
a(I607
I447
tp708
a(I608
I460
tp709
a(I609
I569
tp710
a(I610
I504
tp711
a(I611
I368
tp712
a(I612
I876
tp713
a(I613
I433
tp714
a(I614
I489
tp715
a(I615
I25
tp716
a(I616
I833
tp717
a(I617
I902
tp718
a(I618
I296
tp719
a(I619
I878
tp720
a(I620
I879
tp721
a(I621
I939
tp722
a(I622
I229
tp723
a(I623
I43
tp724
a(I624
I989
tp725
a(I625
I343
tp726
a(I626
I809
tp727
a(I627
I855
tp728
a(I628
I755
tp729
a(I629
I179
tp730
a(I630
I581
tp731
a(I631
I718
tp732
a(I632
I97
tp733
a(I633
I645
tp734
a(I634
I389
tp735
a(I635
I188
tp736
a(I636
I141
tp737
a(I637
I439
tp738
a(I638
I812
tp739
a(I639
I142
tp740
a(I640
I819
tp741
a(I641
I872
tp742
a(I642
I844
tp743
a(I643
I256
tp744
a(I644
I800
tp745
a(I645
I654
tp746
a(I646
I791
tp747
a(I647
I326
tp748
a(I648
I236
tp749
a(I649
I406
tp750
a(I650
I20
tp751
a(I651
I780
tp752
a(I652
I12
tp753
a(I653
I698
tp754
a(I654
I660
tp755
a(I655
I51
tp756
a(I656
I912
tp757
a(I657
I820
tp758
a(I658
I2
tp759
a(I659
I870
tp760
a(I660
I986
tp761
a(I661
I303
tp762
a(I662
I910
tp763
a(I663
I602
tp764
a(I664
I559
tp765
a(I665
I768
tp766
a(I666
I959
tp767
a(I667
I243
tp768
a(I668
I993
tp769
a(I669
I175
tp770
a(I670
I706
tp771
a(I671
I380
tp772
a(I672
I663
tp773
a(I673
I76
tp774
a(I674
I748
tp775
a(I675
I372
tp776
a(I676
I178
tp777
a(I677
I827
tp778
a(I678
I801
tp779
a(I679
I479
tp780
a(I680
I45
tp781
a(I681
I379
tp782
a(I682
I532
tp783
a(I683
I618
tp784
a(I684
I579
tp785
a(I685
I398
tp786
a(I686
I930
tp787
a(I687
I357
tp788
a(I688
I919
tp789
a(I689
I788
tp790
a(I690
I746
tp791
a(I691
I327
tp792
a(I692
I27
tp793
a(I693
I192
tp794
a(I694
I482
tp795
a(I695
I207
tp796
a(I696
I589
tp797
a(I697
I469
tp798
a(I698
I486
tp799
a(I699
I605
tp800
a.